; Function Attrs: nounwind uwtable
define noundef ptr @l_Lean_PersistentHashMap_forIn___rarg___lambda__1(ptr noundef %0) #2 {
  %2 = ptrtoint ptr %0 to i64
  %3 = and i64 %2, 1
  %.not.i24 = icmp eq i64 %3, 0
  br i1 %.not.i24, label %7, label %4

4:                                                ; preds = %1
  %5 = lshr i64 %2, 1
  %6 = trunc i64 %5 to i32
  br label %lean_obj_tag.exit

7:                                                ; preds = %1
  %8 = getelementptr i8, ptr %0, i64 4
  %.val.i = load i32, ptr %8, align 4
  %9 = lshr i32 %.val.i, 24
  br label %lean_obj_tag.exit

lean_obj_tag.exit:                                ; preds = %4, %7
  %.0.i = phi i32 [ %6, %4 ], [ %9, %7 ]
  %10 = icmp eq i32 %.0.i, 0
  %.val23 = load i32, ptr %0, align 4, !tbaa !4
  %11 = icmp eq i32 %.val23, 1
  br i1 %10, label %12, label %34

12:                                               ; preds = %lean_obj_tag.exit
  br i1 %11, label %58, label %13

13:                                               ; preds = %12
  %14 = getelementptr inbounds nuw i8, ptr %0, i64 8
  %15 = load ptr, ptr %14, align 8, !tbaa !9
  %16 = ptrtoint ptr %15 to i64
  %17 = and i64 %16, 1
  %.not32 = icmp eq i64 %17, 0
  br i1 %.not32, label %18, label %lean_inc.exit20

18:                                               ; preds = %13
  %.val.i25 = load i32, ptr %15, align 4, !tbaa !4
  %19 = icmp sgt i32 %.val.i25, 0
  br i1 %19, label %20, label %22, !prof !11

20:                                               ; preds = %18
  %21 = add nuw i32 %.val.i25, 1
  store i32 %21, ptr %15, align 4, !tbaa !4
  br label %lean_inc.exit20

22:                                               ; preds = %18
  %.not.i26 = icmp eq i32 %.val.i25, 0
  br i1 %.not.i26, label %lean_inc.exit20, label %23

23:                                               ; preds = %22
  tail call void @lean_inc_ref_cold(ptr noundef nonnull %15) #7
  br label %lean_inc.exit20

lean_inc.exit20:                                  ; preds = %23, %22, %20, %13
  br i1 %.not.i24, label %24, label %lean_dec.exit19

24:                                               ; preds = %lean_inc.exit20
  %25 = load i32, ptr %0, align 4, !tbaa !4
  %26 = icmp sgt i32 %25, 1
  br i1 %26, label %27, label %29, !prof !11

27:                                               ; preds = %24
  %28 = add nsw i32 %25, -1
  store i32 %28, ptr %0, align 4, !tbaa !4
  br label %lean_dec.exit19

29:                                               ; preds = %24
  %.not.i = icmp eq i32 %25, 0
  br i1 %.not.i, label %lean_dec.exit19, label %30

30:                                               ; preds = %29
  tail call void @lean_dec_ref_cold(ptr noundef nonnull %0) #7
  br label %lean_dec.exit19

lean_dec.exit19:                                  ; preds = %30, %29, %27, %lean_inc.exit20
  tail call void @lean_inc_heartbeat() #7
  %31 = tail call noalias ptr @mi_malloc_small(i64 noundef 16) #7
  %32 = icmp eq ptr %31, null
  br i1 %32, label %33, label %.sink.split

33:                                               ; preds = %lean_dec.exit19
  tail call void @lean_internal_panic_out_of_memory() #8
  unreachable

34:                                               ; preds = %lean_obj_tag.exit
  br i1 %11, label %58, label %35

35:                                               ; preds = %34
  %36 = getelementptr inbounds nuw i8, ptr %0, i64 8
  %37 = load ptr, ptr %36, align 8, !tbaa !9
  %38 = ptrtoint ptr %37 to i64
  %39 = and i64 %38, 1
  %.not = icmp eq i64 %39, 0
  br i1 %.not, label %40, label %lean_inc.exit

40:                                               ; preds = %35
  %.val.i27 = load i32, ptr %37, align 4, !tbaa !4
  %41 = icmp sgt i32 %.val.i27, 0
  br i1 %41, label %42, label %44, !prof !11

42:                                               ; preds = %40
  %43 = add nuw i32 %.val.i27, 1
  store i32 %43, ptr %37, align 4, !tbaa !4
  br label %lean_inc.exit

44:                                               ; preds = %40
  %.not.i28 = icmp eq i32 %.val.i27, 0
  br i1 %.not.i28, label %lean_inc.exit, label %45

45:                                               ; preds = %44
  tail call void @lean_inc_ref_cold(ptr noundef nonnull %37) #7
  br label %lean_inc.exit

lean_inc.exit:                                    ; preds = %45, %44, %42, %35
  br i1 %.not.i24, label %46, label %lean_dec.exit

46:                                               ; preds = %lean_inc.exit
  %47 = load i32, ptr %0, align 4, !tbaa !4
  %48 = icmp sgt i32 %47, 1
  br i1 %48, label %49, label %51, !prof !11

49:                                               ; preds = %46
  %50 = add nsw i32 %47, -1
  store i32 %50, ptr %0, align 4, !tbaa !4
  br label %lean_dec.exit

51:                                               ; preds = %46
  %.not.i21 = icmp eq i32 %47, 0
  br i1 %.not.i21, label %lean_dec.exit, label %52

52:                                               ; preds = %51
  tail call void @lean_dec_ref_cold(ptr noundef nonnull %0) #7
  br label %lean_dec.exit

lean_dec.exit:                                    ; preds = %52, %51, %49, %lean_inc.exit
  tail call void @lean_inc_heartbeat() #7
  %53 = tail call noalias ptr @mi_malloc_small(i64 noundef 16) #7
  %54 = icmp eq ptr %53, null
  br i1 %54, label %55, label %.sink.split

55:                                               ; preds = %lean_dec.exit
  tail call void @lean_internal_panic_out_of_memory() #8
  unreachable

.sink.split:                                      ; preds = %lean_dec.exit, %lean_dec.exit19
  %.sink39 = phi ptr [ %31, %lean_dec.exit19 ], [ %53, %lean_dec.exit ]
  %.sink36 = phi i32 [ 65552, %lean_dec.exit19 ], [ 16842768, %lean_dec.exit ]
  %.sink = phi ptr [ %15, %lean_dec.exit19 ], [ %37, %lean_dec.exit ]
  %56 = getelementptr inbounds nuw i8, ptr %.sink39, i64 4
  store i32 1, ptr %.sink39, align 4, !tbaa !4
  store i32 %.sink36, ptr %56, align 4
  %57 = getelementptr inbounds nuw i8, ptr %.sink39, i64 8
  store ptr %.sink, ptr %57, align 8, !tbaa !9
  br label %58

58:                                               ; preds = %.sink.split, %34, %12
  %.1 = phi ptr [ %0, %12 ], [ %0, %34 ], [ %.sink39, %.sink.split ]
  ret ptr %.1
}